target datalayout = "e-m:e-p270:32:32-p271:32:32-p272:64:64-i64:64-i128:128-f80:128-n8:16:32:64-S128"
target triple = "x86_64-pc-linux-gnu"

%struct.X509_VERIFY_PARAM_st = type { ptr, i64, i32, i64, i32, i32, i32, i32, ptr, ptr, i32, ptr, ptr, i64, ptr, i64 }

@.str = private unnamed_addr constant [34 x i8] c"../openssl/crypto/x509/x509_vpm.c\00", align 1

; Function Attrs: nounwind uwtable
define internal i32 @int_x509_param_set1(ptr noundef %0, ptr noundef %1, ptr noundef %2, i64 noundef %3) #0 {
  %5 = alloca i32, align 4
  %6 = alloca ptr, align 8
  %7 = alloca ptr, align 8
  %8 = alloca ptr, align 8
  %9 = alloca i64, align 8
  %10 = alloca ptr, align 8
  %11 = alloca i32, align 4
  store ptr %0, ptr %6, align 8, !tbaa !41
  store ptr %1, ptr %7, align 8, !tbaa !43
  store ptr %2, ptr %8, align 8, !tbaa !25
  store i64 %3, ptr %9, align 8, !tbaa !27
  call void @llvm.lifetime.start.p0(i64 8, ptr %10) #6
  %12 = load ptr, ptr %8, align 8, !tbaa !25
  %13 = icmp ne ptr %12, null
  br i1 %13, label %14, label %34

14:                                               ; preds = %4
  %15 = load i64, ptr %9, align 8, !tbaa !27
  %16 = icmp eq i64 %15, 0
  br i1 %16, label %17, label %20

17:                                               ; preds = %14
  %18 = load ptr, ptr %8, align 8, !tbaa !25
  %19 = call i64 @strlen(ptr noundef %18) #7
  store i64 %19, ptr %9, align 8, !tbaa !27
  br label %20

20:                                               ; preds = %17, %14
  %21 = load i64, ptr %9, align 8, !tbaa !27
  %22 = add i64 %21, 1
  %23 = call noalias ptr @CRYPTO_malloc(i64 noundef %22, ptr noundef @.str, i32 noundef 245)
  store ptr %23, ptr %10, align 8, !tbaa !25
  %24 = load ptr, ptr %10, align 8, !tbaa !25
  %25 = icmp eq ptr %24, null
  br i1 %25, label %26, label %27

26:                                               ; preds = %20
  store i32 0, ptr %5, align 4
  store i32 1, ptr %11, align 4
  br label %46

27:                                               ; preds = %20
  %28 = load ptr, ptr %10, align 8, !tbaa !25
  %29 = load ptr, ptr %8, align 8, !tbaa !25
  %30 = load i64, ptr %9, align 8, !tbaa !27
  call void @llvm.memcpy.p0.p0.i64(ptr align 1 %28, ptr align 1 %29, i64 %30, i1 false)
  %31 = load ptr, ptr %10, align 8, !tbaa !25
  %32 = load i64, ptr %9, align 8, !tbaa !27
  %33 = getelementptr inbounds nuw i8, ptr %31, i64 %32
  store i8 0, ptr %33, align 1, !tbaa !40
  br label %35

34:                                               ; preds = %4
  store ptr null, ptr %10, align 8, !tbaa !25
  store i64 0, ptr %9, align 8, !tbaa !27
  br label %35

35:                                               ; preds = %34, %27
  %36 = load ptr, ptr %6, align 8, !tbaa !41
  %37 = load ptr, ptr %36, align 8, !tbaa !25
  call void @CRYPTO_free(ptr noundef %37, ptr noundef @.str, i32 noundef 254)
  %38 = load ptr, ptr %10, align 8, !tbaa !25
  %39 = load ptr, ptr %6, align 8, !tbaa !41
  store ptr %38, ptr %39, align 8, !tbaa !25
  %40 = load ptr, ptr %7, align 8, !tbaa !43
  %41 = icmp ne ptr %40, null
  br i1 %41, label %42, label %45

42:                                               ; preds = %35
  %43 = load i64, ptr %9, align 8, !tbaa !27
  %44 = load ptr, ptr %7, align 8, !tbaa !43
  store i64 %43, ptr %44, align 8, !tbaa !27
  br label %45

45:                                               ; preds = %42, %35
  store i32 1, ptr %5, align 4
  store i32 1, ptr %11, align 4
  br label %46

46:                                               ; preds = %45, %26
  call void @llvm.lifetime.end.p0(i64 8, ptr %10) #6
  %47 = load i32, ptr %5, align 4
  ret i32 %47
}

; Function Attrs: nounwind uwtable
define i32 @X509_VERIFY_PARAM_set1_email(ptr noundef %0, ptr noundef %1, i64 noundef %2) #0 {
  %4 = alloca ptr, align 8
  %5 = alloca ptr, align 8
  %6 = alloca i64, align 8
  store ptr %0, ptr %4, align 8, !tbaa !3
  store ptr %1, ptr %5, align 8, !tbaa !25
  store i64 %2, ptr %6, align 8, !tbaa !27
  %7 = load ptr, ptr %4, align 8, !tbaa !3
  %8 = getelementptr inbounds nuw %struct.X509_VERIFY_PARAM_st, ptr %7, i32 0, i32 12
  %9 = load ptr, ptr %4, align 8, !tbaa !3
  %10 = getelementptr inbounds nuw %struct.X509_VERIFY_PARAM_st, ptr %9, i32 0, i32 13
  %11 = load ptr, ptr %5, align 8, !tbaa !25
  %12 = load i64, ptr %6, align 8, !tbaa !27
  %13 = call i32 @int_x509_param_set1(ptr noundef %8, ptr noundef %10, ptr noundef %11, i64 noundef %12)
  ret i32 %13
}