; Function Attrs: nounwind uwtable
define range(i32 0, 2) i32 @X509_VERIFY_PARAM_set1_email(ptr noundef captures(none) %0, ptr noundef readonly captures(address_is_null) %1, i64 noundef %2) local_unnamed_addr #0 {
  %4 = getelementptr inbounds nuw i8, ptr %0, i64 80
  %5 = getelementptr inbounds nuw i8, ptr %0, i64 88
  %.not.i = icmp eq ptr %1, null
  br i1 %.not.i, label %16, label %6

6:                                                ; preds = %3
  %7 = icmp eq i64 %2, 0
  br i1 %7, label %8, label %10

8:                                                ; preds = %6
  %9 = tail call i64 @strlen(ptr noundef nonnull readonly dereferenceable(1) %1) #10
  br label %10

10:                                               ; preds = %8, %6
  %.016.i = phi i64 [ %9, %8 ], [ %2, %6 ]
  %11 = add i64 %.016.i, 1
  %12 = tail call noalias ptr @CRYPTO_malloc(i64 noundef %11, ptr noundef nonnull @.str, i32 noundef 245) #9
  %13 = icmp eq ptr %12, null
  br i1 %13, label %int_x509_param_set1.exit, label %14

14:                                               ; preds = %10
  tail call void @llvm.memcpy.p0.p0.i64(ptr nonnull align 1 %12, ptr nonnull readonly align 1 %1, i64 %.016.i, i1 false)
  %15 = getelementptr inbounds nuw i8, ptr %12, i64 %.016.i
  store i8 0, ptr %15, align 1, !tbaa !26
  br label %16

16:                                               ; preds = %14, %3
  %.1.i = phi i64 [ %.016.i, %14 ], [ 0, %3 ]
  %.0.i = phi ptr [ %12, %14 ], [ null, %3 ]
  %17 = load ptr, ptr %4, align 8, !tbaa !27
  tail call void @CRYPTO_free(ptr noundef %17, ptr noundef nonnull @.str, i32 noundef 254) #9
  store ptr %.0.i, ptr %4, align 8, !tbaa !27
  store i64 %.1.i, ptr %5, align 8, !tbaa !28
  br label %int_x509_param_set1.exit

int_x509_param_set1.exit:                         ; preds = %10, %16
  %.017.i = phi i32 [ 0, %10 ], [ 1, %16 ]
  ret i32 %.017.i
}